; Function Attrs: mustprogress nofree norecurse nosync nounwind willreturn memory(read, argmem: readwrite, inaccessiblemem: none) uwtable
define hidden noundef zeroext i1 @_ZNK5clang7targets14CSKYTargetInfo21validateAsmConstraintERPKcRNS_10TargetInfo14ConstraintInfoE(ptr nocapture nonnull readnone align 8 %0, ptr nocapture noundef nonnull readonly align 8 dereferenceable(8) %1, ptr nocapture noundef nonnull align 8 dereferenceable(168) %2) unnamed_addr #6 align 2 {
  %4 = load ptr, ptr %1, align 8
  %5 = load i8, ptr %4, align 1
  switch i8 %5, label %9 [
    i8 97, label %6
    i8 98, label %6
    i8 99, label %6
    i8 121, label %6
    i8 108, label %6
    i8 104, label %6
    i8 119, label %6
    i8 118, label %6
    i8 122, label %6
  ]

6:                                                ; preds = %3, %3, %3, %3, %3, %3, %3, %3, %3
  %7 = load i32, ptr %2, align 8
  %8 = or i32 %7, 2
  store i32 %8, ptr %2, align 8
  br label %9

9:                                                ; preds = %3, %6
  %.0 = phi i1 [ true, %6 ], [ false, %3 ]
  ret i1 %.0
}